target datalayout = "e-m:e-p270:32:32-p271:32:32-p272:64:64-i64:64-i128:128-f80:128-n8:16:32:64-S128"
target triple = "x86_64-pc-linux-gnu"

%struct._php_ps_globals = type { ptr, ptr, ptr, ptr, ptr, i64, ptr, ptr, ptr, i8, i8, ptr, ptr, ptr, i32, ptr, i32, i32, %struct._php_random_status_state_pcgoneseq128xslrr64, %struct._php_random_algo_with_state, i64, i64, i64, i64, %struct.anon, ptr, i8, i8, i8, i8, i8, i8, i8, i8, ptr, %struct._zval_struct, i64, i64, ptr, ptr, ptr, i64, double, i8, i8, i8, i8, i8, i8, ptr }
%struct._php_random_status_state_pcgoneseq128xslrr64 = type { i128 }
%struct._php_random_algo_with_state = type { ptr, ptr }
%struct.anon = type { %struct._zval_struct, %struct._zval_struct, %struct._zval_struct, %struct._zval_struct, %struct._zval_struct, %struct._zval_struct, %struct._zval_struct, %struct._zval_struct, %struct._zval_struct }
%struct._zval_struct = type { %union._zend_value, %union.anon, %union.anon.3 }
%union._zend_value = type { i64 }
%union.anon = type { i32 }
%union.anon.3 = type { i32 }
%struct._zend_array = type { %struct._zend_refcounted_h, %union.anon.5, i32, %union.anon.7, i32, i32, i32, i32, i64, ptr }
%struct._zend_refcounted_h = type { i32, %union.anon.4 }
%union.anon.4 = type { i32 }
%union.anon.5 = type { i32 }
%union.anon.7 = type { ptr }
%struct._zend_llist = type { ptr, ptr, i64, i64, ptr, i8, ptr }
%struct._sapi_globals_struct = type { ptr, %struct.sapi_request_info, %struct.sapi_headers_struct, i64, i8, i8, %struct.stat, ptr, ptr, ptr, i64, i32, i8, double, %struct._zend_array, %struct._zval_struct, %struct._zend_fcall_info_cache, %struct.sapi_request_parse_body_context }
%struct.sapi_request_info = type { ptr, ptr, ptr, i64, ptr, ptr, ptr, ptr, i8, i8, i8, ptr, ptr, ptr, ptr, ptr, ptr, ptr, i32, i32, ptr, i32 }
%struct.sapi_headers_struct = type { %struct._zend_llist, i32, i8, ptr, ptr }
%struct.stat = type { i64, i64, i64, i32, i32, i32, i32, i64, i64, i64, i64, %struct.timespec, %struct.timespec, %struct.timespec, [3 x i64] }
%struct.timespec = type { i64, i64 }
%struct._zend_fcall_info_cache = type { ptr, ptr, ptr, ptr, ptr }
%struct.sapi_request_parse_body_context = type { i8, [5 x %struct.anon.9] }
%struct.anon.9 = type { i8, i64 }

@ps_globals = global %struct._php_ps_globals zeroinitializer, align 16
@sapi_globals = external global %struct._sapi_globals_struct, align 8
@.str.237 = private unnamed_addr constant [64 x i8] c"Session ini settings cannot be changed when a session is active\00", align 1
@.str.238 = private unnamed_addr constant [76 x i8] c"Session ini settings cannot be changed after headers have already been sent\00", align 1

; Function Attrs: nounwind uwtable
define internal i32 @OnUpdateSessionString(ptr noundef %0, ptr noundef %1, ptr noundef %2, ptr noundef %3, ptr noundef %4, i32 noundef %5) #0 {
  %7 = alloca i32, align 4
  %8 = alloca ptr, align 8
  %9 = alloca ptr, align 8
  %10 = alloca ptr, align 8
  %11 = alloca ptr, align 8
  %12 = alloca ptr, align 8
  %13 = alloca i32, align 4
  store ptr %0, ptr %8, align 8
  store ptr %1, ptr %9, align 8
  store ptr %2, ptr %10, align 8
  store ptr %3, ptr %11, align 8
  store ptr %4, ptr %12, align 8
  store i32 %5, ptr %13, align 4
  %14 = load i32, ptr getelementptr inbounds (%struct._php_ps_globals, ptr @ps_globals, i32 0, i32 14), align 8
  %15 = icmp eq i32 %14, 2
  br i1 %15, label %16, label %17

16:                                               ; preds = %6
  call void (ptr, i32, ptr, ...) @php_error_docref(ptr noundef null, i32 noundef 2, ptr noundef @.str.237)
  store i32 -1, ptr %7, align 4
  br label %33

17:                                               ; preds = %6
  %18 = load i8, ptr getelementptr inbounds (%struct._sapi_globals_struct, ptr @sapi_globals, i32 0, i32 5), align 1
  %19 = zext i8 %18 to i32
  %20 = icmp ne i32 %19, 0
  br i1 %20, label %21, label %25

21:                                               ; preds = %17
  %22 = load i32, ptr %13, align 4
  %23 = icmp ne i32 %22, 8
  br i1 %23, label %24, label %25

24:                                               ; preds = %21
  call void (ptr, i32, ptr, ...) @php_error_docref(ptr noundef null, i32 noundef 2, ptr noundef @.str.238)
  store i32 -1, ptr %7, align 4
  br label %33

25:                                               ; preds = %21, %17
  %26 = load ptr, ptr %8, align 8
  %27 = load ptr, ptr %9, align 8
  %28 = load ptr, ptr %10, align 8
  %29 = load ptr, ptr %11, align 8
  %30 = load ptr, ptr %12, align 8
  %31 = load i32, ptr %13, align 4
  %32 = call i32 @OnUpdateString(ptr noundef %26, ptr noundef %27, ptr noundef %28, ptr noundef %29, ptr noundef %30, i32 noundef %31)
  store i32 %32, ptr %7, align 4
  br label %33

33:                                               ; preds = %25, %24, %16
  %34 = load i32, ptr %7, align 4
  ret i32 %34
}